target datalayout = "e-m:e-p270:32:32-p271:32:32-p272:64:64-i64:64-i128:128-f80:128-n8:16:32:64-S128"
target triple = "x86_64-pc-linux-gnu"

%"class.icu_77::UnicodeString" = type { %"class.icu_77::Replaceable", %"union.icu_77::UnicodeString::StackBufferOrFields" }
%"class.icu_77::Replaceable" = type { %"class.icu_77::UObject" }
%"class.icu_77::UObject" = type { ptr }
%"union.icu_77::UnicodeString::StackBufferOrFields" = type { %struct.anon.0, [32 x i8] }
%struct.anon.0 = type { i16, i32, i32, ptr }
%struct.anon = type { i16, [27 x i16] }

@_ZTVN6icu_777UObjectE = available_externally unnamed_addr constant { [5 x ptr] } { [5 x ptr] [ptr null, ptr @_ZTIN6icu_777UObjectE, ptr @_ZN6icu_777UObjectD1Ev, ptr @_ZN6icu_777UObjectD0Ev, ptr @_ZNK6icu_777UObject17getDynamicClassIDEv] }, align 8

; Function Attrs: inlinehint mustprogress nounwind uwtable
define linkonce_odr void @_ZN6icu_777UObjectC2Ev(ptr noundef nonnull align 8 dereferenceable(8) %0) unnamed_addr #2 comdat align 2 {
  %2 = alloca ptr, align 8
  store ptr %0, ptr %2, align 8, !tbaa !339
  %3 = load ptr, ptr %2, align 8
  store ptr getelementptr inbounds inrange(-16, 24) ({ [5 x ptr] }, ptr @_ZTVN6icu_777UObjectE, i32 0, i32 0, i32 2), ptr %3, align 8, !tbaa !63
  ret void
}

; Function Attrs: inlinehint mustprogress nounwind uwtable
define linkonce_odr void @_ZN6icu_7711ReplaceableC2Ev(ptr noundef nonnull align 8 dereferenceable(8) %0) unnamed_addr #2 comdat align 2 {
  %2 = alloca ptr, align 8
  store ptr %0, ptr %2, align 8, !tbaa !337
  %3 = load ptr, ptr %2, align 8
  call void @_ZN6icu_777UObjectC2Ev(ptr noundef nonnull align 8 dereferenceable(8) %3) #12
  store ptr getelementptr inbounds inrange(-16, 88) ({ [13 x ptr] }, ptr @_ZTVN6icu_7711ReplaceableE, i32 0, i32 0, i32 2), ptr %3, align 8, !tbaa !63
  ret void
}

; Function Attrs: inlinehint mustprogress uwtable
define linkonce_odr void @_ZN6icu_7713UnicodeStringC2Ev(ptr noundef nonnull align 8 dereferenceable(64) %0) unnamed_addr #3 comdat align 2 {
  %2 = alloca ptr, align 8
  store ptr %0, ptr %2, align 8, !tbaa !72
  %3 = load ptr, ptr %2, align 8
  call void @_ZN6icu_7711ReplaceableC2Ev(ptr noundef nonnull align 8 dereferenceable(8) %3)
  store ptr getelementptr inbounds inrange(-16, 88) ({ [13 x ptr] }, ptr @_ZTVN6icu_7713UnicodeStringE, i32 0, i32 0, i32 2), ptr %3, align 8, !tbaa !63
  %4 = getelementptr inbounds nuw %"class.icu_77::UnicodeString", ptr %3, i32 0, i32 1
  %5 = getelementptr inbounds nuw %struct.anon, ptr %4, i32 0, i32 0
  store i16 2, ptr %5, align 8, !tbaa !74
  ret void
}

; Function Attrs: mustprogress uwtable
define noundef i32 @_ZNK6icu_7716SimpleDateFormat18matchQuarterStringERKNS_13UnicodeStringEi19UCalendarDateFieldsPS2_iRNS_8CalendarE(ptr noundef nonnull align 8 dereferenceable(528) %0, ptr noundef nonnull align 8 dereferenceable(64) %1, i32 noundef %2, i32 noundef %3, ptr noundef %4, i32 noundef %5, ptr noundef nonnull align 8 dereferenceable(192) %6) #1 align 2 personality ptr @__gxx_personality_v0 {
  %8 = alloca i32, align 4
  %9 = alloca ptr, align 8
  %10 = alloca ptr, align 8
  %11 = alloca i32, align 4
  %12 = alloca i32, align 4
  %13 = alloca ptr, align 8
  %14 = alloca i32, align 4
  %15 = alloca ptr, align 8
  %16 = alloca i32, align 4
  %17 = alloca i32, align 4
  %18 = alloca i32, align 4
  %19 = alloca i32, align 4
  %20 = alloca %"class.icu_77::UnicodeString", align 8
  %21 = alloca i32, align 4
  %22 = alloca ptr, align 8
  %23 = alloca i32, align 4
  %24 = alloca i32, align 4
  store ptr %0, ptr %9, align 8, !tbaa !23
  store ptr %1, ptr %10, align 8, !tbaa !72
  store i32 %2, ptr %11, align 4, !tbaa !14
  store i32 %3, ptr %12, align 4, !tbaa !162
  store ptr %4, ptr %13, align 8, !tbaa !72
  store i32 %5, ptr %14, align 4, !tbaa !14
  store ptr %6, ptr %15, align 8, !tbaa !150
  call void @llvm.lifetime.start.p0(i64 4, ptr %16) #12
  store i32 0, ptr %16, align 4, !tbaa !14
  call void @llvm.lifetime.start.p0(i64 4, ptr %17) #12
  %25 = load i32, ptr %14, align 4, !tbaa !14
  store i32 %25, ptr %17, align 4, !tbaa !14
  call void @llvm.lifetime.start.p0(i64 4, ptr %18) #12
  store i32 0, ptr %18, align 4, !tbaa !14
  call void @llvm.lifetime.start.p0(i64 4, ptr %19) #12
  store i32 -1, ptr %19, align 4, !tbaa !14
  call void @llvm.lifetime.start.p0(i64 64, ptr %20) #12
  call void @_ZN6icu_7713UnicodeStringC2Ev(ptr noundef nonnull align 8 dereferenceable(64) %20)
  br label %26

26:                                               ; preds = %49, %7
  %27 = load i32, ptr %16, align 4, !tbaa !14
  %28 = load i32, ptr %17, align 4, !tbaa !14
  %29 = icmp slt i32 %27, %28
  br i1 %29, label %30, label %52

30:                                               ; preds = %26
  call void @llvm.lifetime.start.p0(i64 4, ptr %21) #12
  store i32 0, ptr %21, align 4, !tbaa !14
  %31 = load ptr, ptr %10, align 8, !tbaa !72
  %32 = load i32, ptr %11, align 4, !tbaa !14
  %33 = load ptr, ptr %13, align 8, !tbaa !72
  %34 = load i32, ptr %16, align 4, !tbaa !14
  %35 = sext i32 %34 to i64
  %36 = getelementptr inbounds %"class.icu_77::UnicodeString", ptr %33, i64 %35
  %37 = invoke noundef i32 @_ZN6icu_77L26matchStringWithOptionalDotERKNS_13UnicodeStringEiS2_(ptr noundef nonnull align 8 dereferenceable(64) %31, i32 noundef %32, ptr noundef nonnull align 8 dereferenceable(64) %36)
          to label %38 unwind label %44

38:                                               ; preds = %30
  store i32 %37, ptr %21, align 4, !tbaa !14
  %39 = load i32, ptr %18, align 4, !tbaa !14
  %40 = icmp sgt i32 %37, %39
  br i1 %40, label %41, label %48

41:                                               ; preds = %38
  %42 = load i32, ptr %21, align 4, !tbaa !14
  store i32 %42, ptr %18, align 4, !tbaa !14
  %43 = load i32, ptr %16, align 4, !tbaa !14
  store i32 %43, ptr %19, align 4, !tbaa !14
  br label %48

44:                                               ; preds = %30
  %45 = landingpad { ptr, i32 }
          cleanup
  %46 = extractvalue { ptr, i32 } %45, 0
  store ptr %46, ptr %22, align 8
  %47 = extractvalue { ptr, i32 } %45, 1
  store i32 %47, ptr %23, align 4
  call void @llvm.lifetime.end.p0(i64 4, ptr %21) #12
  br label %73

48:                                               ; preds = %41, %38
  call void @llvm.lifetime.end.p0(i64 4, ptr %21) #12
  br label %49

49:                                               ; preds = %48
  %50 = load i32, ptr %16, align 4, !tbaa !14
  %51 = add nsw i32 %50, 1
  store i32 %51, ptr %16, align 4, !tbaa !14
  br label %26, !llvm.loop !317

52:                                               ; preds = %26
  %53 = load i32, ptr %19, align 4, !tbaa !14
  %54 = icmp sge i32 %53, 0
  br i1 %54, label %55, label %68

55:                                               ; preds = %52
  %56 = load ptr, ptr %15, align 8, !tbaa !150
  %57 = load i32, ptr %12, align 4, !tbaa !162
  %58 = load i32, ptr %19, align 4, !tbaa !14
  %59 = mul nsw i32 %58, 3
  invoke void @_ZN6icu_778Calendar3setE19UCalendarDateFieldsi(ptr noundef nonnull align 8 dereferenceable(192) %56, i32 noundef %57, i32 noundef %59)
          to label %60 unwind label %64

60:                                               ; preds = %55
  %61 = load i32, ptr %11, align 4, !tbaa !14
  %62 = load i32, ptr %18, align 4, !tbaa !14
  %63 = add nsw i32 %61, %62
  store i32 %63, ptr %8, align 4
  store i32 1, ptr %24, align 4
  br label %71

64:                                               ; preds = %55
  %65 = landingpad { ptr, i32 }
          cleanup
  %66 = extractvalue { ptr, i32 } %65, 0
  store ptr %66, ptr %22, align 8
  %67 = extractvalue { ptr, i32 } %65, 1
  store i32 %67, ptr %23, align 4
  br label %73

68:                                               ; preds = %52
  %69 = load i32, ptr %11, align 4, !tbaa !14
  %70 = sub nsw i32 0, %69
  store i32 %70, ptr %8, align 4
  store i32 1, ptr %24, align 4
  br label %71

71:                                               ; preds = %68, %60
  call void @_ZN6icu_7713UnicodeStringD1Ev(ptr noundef nonnull align 8 dereferenceable(64) %20) #12
  call void @llvm.lifetime.end.p0(i64 64, ptr %20) #12
  call void @llvm.lifetime.end.p0(i64 4, ptr %19) #12
  call void @llvm.lifetime.end.p0(i64 4, ptr %18) #12
  call void @llvm.lifetime.end.p0(i64 4, ptr %17) #12
  call void @llvm.lifetime.end.p0(i64 4, ptr %16) #12
  %72 = load i32, ptr %8, align 4
  ret i32 %72

73:                                               ; preds = %64, %44
  call void @_ZN6icu_7713UnicodeStringD1Ev(ptr noundef nonnull align 8 dereferenceable(64) %20) #12
  call void @llvm.lifetime.end.p0(i64 64, ptr %20) #12
  call void @llvm.lifetime.end.p0(i64 4, ptr %19) #12
  call void @llvm.lifetime.end.p0(i64 4, ptr %18) #12
  call void @llvm.lifetime.end.p0(i64 4, ptr %17) #12
  call void @llvm.lifetime.end.p0(i64 4, ptr %16) #12
  br label %74

74:                                               ; preds = %73
  %75 = load ptr, ptr %22, align 8
  %76 = load i32, ptr %23, align 4
  %77 = insertvalue { ptr, i32 } poison, ptr %75, 0
  %78 = insertvalue { ptr, i32 } %77, i32 %76, 1
  resume { ptr, i32 } %78
}