; Function Attrs: mustprogress uwtable
define noundef i32 @_ZNK6icu_7716SimpleDateFormat18matchQuarterStringERKNS_13UnicodeStringEi19UCalendarDateFieldsPS2_iRNS_8CalendarE(ptr nonnull readnone align 8 captures(none) %0, ptr noundef nonnull align 8 dereferenceable(64) %1, i32 noundef %2, i32 noundef %3, ptr noundef %4, i32 noundef %5, ptr noundef nonnull align 8 dereferenceable(192) %6) local_unnamed_addr #1 align 2 personality ptr @__gxx_personality_v0 {
  %8 = alloca %"class.icu_77::UnicodeString", align 8
  call void @llvm.lifetime.start.p0(i64 64, ptr nonnull %8) #23
  store ptr getelementptr inbounds nuw inrange(-16, 88) (i8, ptr @_ZTVN6icu_7713UnicodeStringE, i64 16), ptr %8, align 8, !tbaa !44
  %9 = getelementptr inbounds nuw i8, ptr %8, i64 8
  store i16 2, ptr %9, align 8, !tbaa !51
  %10 = icmp sgt i32 %5, 0
  br i1 %10, label %.lr.ph.preheader, label %._crit_edge.thread

.lr.ph.preheader:                                 ; preds = %7
  %wide.trip.count = zext nneg i32 %5 to i64
  br label %.lr.ph

.lr.ph:                                           ; preds = %.lr.ph.preheader, %13
  %indvars.iv = phi i64 [ 0, %.lr.ph.preheader ], [ %indvars.iv.next, %13 ]
  %.02133 = phi i32 [ -1, %.lr.ph.preheader ], [ %spec.select28, %13 ]
  %.02232 = phi i32 [ 0, %.lr.ph.preheader ], [ %spec.select, %13 ]
  %11 = getelementptr inbounds nuw %"class.icu_77::UnicodeString", ptr %4, i64 %indvars.iv
  %12 = invoke fastcc noundef i32 @_ZN6icu_77L26matchStringWithOptionalDotERKNS_13UnicodeStringEiS2_(ptr noundef nonnull align 8 dereferenceable(64) %1, i32 noundef %2, ptr noundef nonnull align 8 dereferenceable(64) %11)
          to label %13 unwind label %16

13:                                               ; preds = %.lr.ph
  %14 = icmp sgt i32 %12, %.02232
  %spec.select = tail call i32 @llvm.smax.i32(i32 %12, i32 %.02232)
  %15 = trunc nuw nsw i64 %indvars.iv to i32
  %spec.select28 = select i1 %14, i32 %15, i32 %.02133
  %indvars.iv.next = add nuw nsw i64 %indvars.iv, 1
  %exitcond.not = icmp eq i64 %indvars.iv.next, %wide.trip.count
  br i1 %exitcond.not, label %._crit_edge, label %.lr.ph, !llvm.loop !209

16:                                               ; preds = %.lr.ph
  %17 = landingpad { ptr, i32 }
          cleanup
  br label %27

._crit_edge:                                      ; preds = %13
  %18 = icmp sgt i32 %spec.select28, -1
  br i1 %18, label %19, label %._crit_edge.thread

19:                                               ; preds = %._crit_edge
  %20 = mul nuw nsw i32 %spec.select28, 3
  invoke void @_ZN6icu_778Calendar3setE19UCalendarDateFieldsi(ptr noundef nonnull align 8 dereferenceable(192) %6, i32 noundef %3, i32 noundef %20)
          to label %21 unwind label %23

21:                                               ; preds = %19
  %22 = add nsw i32 %spec.select, %2
  br label %26

23:                                               ; preds = %19
  %24 = landingpad { ptr, i32 }
          cleanup
  br label %27

._crit_edge.thread:                               ; preds = %7, %._crit_edge
  %25 = sub nsw i32 0, %2
  br label %26

26:                                               ; preds = %._crit_edge.thread, %21
  %.024 = phi i32 [ %22, %21 ], [ %25, %._crit_edge.thread ]
  call void @_ZN6icu_7713UnicodeStringD1Ev(ptr noundef nonnull align 8 dereferenceable(64) %8) #23
  call void @llvm.lifetime.end.p0(i64 64, ptr nonnull %8) #23
  ret i32 %.024

27:                                               ; preds = %23, %16
  %.pn = phi { ptr, i32 } [ %17, %16 ], [ %24, %23 ]
  call void @_ZN6icu_7713UnicodeStringD1Ev(ptr noundef nonnull align 8 dereferenceable(64) %8) #23
  call void @llvm.lifetime.end.p0(i64 64, ptr nonnull %8) #23
  resume { ptr, i32 } %.pn
}